target datalayout = "e-m:e-p270:32:32-p271:32:32-p272:64:64-i64:64-i128:128-f80:128-n8:16:32:64-S128"
target triple = "x86_64-pc-linux-gnu"

%struct.NamedLWLockTrancheRequest = type { [64 x i8], i32 }

@NamedLWLockTrancheRequests = dso_local global i32 0, align 4
@NamedLWLockTrancheRequestArray = internal global ptr null, align 8

; Function Attrs: nounwind uwtable
define internal i32 @NumLWLocksForNamedTranches() #0 {
  %1 = alloca i32, align 4
  %2 = alloca i32, align 4
  call void @llvm.lifetime.start.p0(i64 4, ptr %1) #9
  store i32 0, ptr %1, align 4
  call void @llvm.lifetime.start.p0(i64 4, ptr %2) #9
  store i32 0, ptr %2, align 4
  br label %3

3:                                                ; preds = %16, %0
  %4 = load i32, ptr %2, align 4
  %5 = load i32, ptr @NamedLWLockTrancheRequests, align 4
  %6 = icmp slt i32 %4, %5
  br i1 %6, label %7, label %19

7:                                                ; preds = %3
  %8 = load ptr, ptr @NamedLWLockTrancheRequestArray, align 8
  %9 = load i32, ptr %2, align 4
  %10 = sext i32 %9 to i64
  %11 = getelementptr inbounds %struct.NamedLWLockTrancheRequest, ptr %8, i64 %10
  %12 = getelementptr inbounds nuw %struct.NamedLWLockTrancheRequest, ptr %11, i32 0, i32 1
  %13 = load i32, ptr %12, align 4
  %14 = load i32, ptr %1, align 4
  %15 = add i32 %14, %13
  store i32 %15, ptr %1, align 4
  br label %16

16:                                               ; preds = %7
  %17 = load i32, ptr %2, align 4
  %18 = add i32 %17, 1
  store i32 %18, ptr %2, align 4
  br label %3, !llvm.loop !6

19:                                               ; preds = %3
  %20 = load i32, ptr %1, align 4
  call void @llvm.lifetime.end.p0(i64 4, ptr %2) #9
  call void @llvm.lifetime.end.p0(i64 4, ptr %1) #9
  ret i32 %20
}

; Function Attrs: nounwind uwtable
define dso_local i64 @LWLockShmemSize() #0 {
  %1 = alloca i64, align 8
  %2 = alloca i32, align 4
  %3 = alloca i32, align 4
  call void @llvm.lifetime.start.p0(i64 8, ptr %1) #9
  call void @llvm.lifetime.start.p0(i64 4, ptr %2) #9
  call void @llvm.lifetime.start.p0(i64 4, ptr %3) #9
  store i32 213, ptr %3, align 4
  %4 = call i32 @NumLWLocksForNamedTranches()
  %5 = load i32, ptr %3, align 4
  %6 = add i32 %5, %4
  store i32 %6, ptr %3, align 4
  %7 = load i32, ptr %3, align 4
  %8 = sext i32 %7 to i64
  %9 = call i64 @mul_size(i64 noundef %8, i64 noundef 128)
  store i64 %9, ptr %1, align 8
  %10 = load i64, ptr %1, align 8
  %11 = call i64 @add_size(i64 noundef %10, i64 noundef 132)
  store i64 %11, ptr %1, align 8
  %12 = load i64, ptr %1, align 8
  %13 = load i32, ptr @NamedLWLockTrancheRequests, align 4
  %14 = sext i32 %13 to i64
  %15 = call i64 @mul_size(i64 noundef %14, i64 noundef 16)
  %16 = call i64 @add_size(i64 noundef %12, i64 noundef %15)
  store i64 %16, ptr %1, align 8
  store i32 0, ptr %2, align 4
  br label %17

17:                                               ; preds = %32, %0
  %18 = load i32, ptr %2, align 4
  %19 = load i32, ptr @NamedLWLockTrancheRequests, align 4
  %20 = icmp slt i32 %18, %19
  br i1 %20, label %21, label %35

21:                                               ; preds = %17
  %22 = load i64, ptr %1, align 8
  %23 = load ptr, ptr @NamedLWLockTrancheRequestArray, align 8
  %24 = load i32, ptr %2, align 4
  %25 = sext i32 %24 to i64
  %26 = getelementptr inbounds %struct.NamedLWLockTrancheRequest, ptr %23, i64 %25
  %27 = getelementptr inbounds nuw %struct.NamedLWLockTrancheRequest, ptr %26, i32 0, i32 0
  %28 = getelementptr inbounds [64 x i8], ptr %27, i64 0, i64 0
  %29 = call i64 @strlen(ptr noundef %28) #10
  %30 = add i64 %29, 1
  %31 = call i64 @add_size(i64 noundef %22, i64 noundef %30)
  store i64 %31, ptr %1, align 8
  br label %32

32:                                               ; preds = %21
  %33 = load i32, ptr %2, align 4
  %34 = add i32 %33, 1
  store i32 %34, ptr %2, align 4
  br label %17, !llvm.loop !4

35:                                               ; preds = %17
  %36 = load i64, ptr %1, align 8
  call void @llvm.lifetime.end.p0(i64 4, ptr %3) #9
  call void @llvm.lifetime.end.p0(i64 4, ptr %2) #9
  call void @llvm.lifetime.end.p0(i64 8, ptr %1) #9
  ret i64 %36
}