; Function Attrs: nounwind uwtable
define dso_local i64 @LWLockShmemSize() local_unnamed_addr #0 {
  %1 = load i32, ptr @NamedLWLockTrancheRequests, align 4
  %2 = icmp sgt i32 %1, 0
  br i1 %2, label %.lr.ph.i, label %NumLWLocksForNamedTranches.exit

.lr.ph.i:                                         ; preds = %0
  %3 = load ptr, ptr @NamedLWLockTrancheRequestArray, align 8
  %wide.trip.count.i = zext nneg i32 %1 to i64
  br label %4

4:                                                ; preds = %4, %.lr.ph.i
  %indvars.iv.i = phi i64 [ 0, %.lr.ph.i ], [ %indvars.iv.next.i, %4 ]
  %.056.i = phi i32 [ 0, %.lr.ph.i ], [ %7, %4 ]
  %5 = getelementptr inbounds nuw %struct.NamedLWLockTrancheRequest, ptr %3, i64 %indvars.iv.i, i32 1
  %6 = load i32, ptr %5, align 4
  %7 = add i32 %6, %.056.i
  %indvars.iv.next.i = add nuw nsw i64 %indvars.iv.i, 1
  %exitcond.not.i = icmp eq i64 %indvars.iv.next.i, %wide.trip.count.i
  br i1 %exitcond.not.i, label %NumLWLocksForNamedTranches.exit.loopexit, label %4, !llvm.loop !4

NumLWLocksForNamedTranches.exit.loopexit:         ; preds = %4
  %8 = add i32 %7, 213
  %9 = sext i32 %8 to i64
  br label %NumLWLocksForNamedTranches.exit

NumLWLocksForNamedTranches.exit:                  ; preds = %NumLWLocksForNamedTranches.exit.loopexit, %0
  %.05.lcssa.i = phi i64 [ 213, %0 ], [ %9, %NumLWLocksForNamedTranches.exit.loopexit ]
  %10 = tail call i64 @mul_size(i64 noundef %.05.lcssa.i, i64 noundef 128) #15
  %11 = tail call i64 @add_size(i64 noundef %10, i64 noundef 132) #15
  %12 = load i32, ptr @NamedLWLockTrancheRequests, align 4
  %13 = sext i32 %12 to i64
  %14 = tail call i64 @mul_size(i64 noundef %13, i64 noundef 16) #15
  %15 = tail call i64 @add_size(i64 noundef %11, i64 noundef %14) #15
  %16 = load i32, ptr @NamedLWLockTrancheRequests, align 4
  %17 = icmp sgt i32 %16, 0
  br i1 %17, label %.lr.ph, label %._crit_edge

.lr.ph:                                           ; preds = %NumLWLocksForNamedTranches.exit, %.lr.ph
  %indvars.iv = phi i64 [ %indvars.iv.next, %.lr.ph ], [ 0, %NumLWLocksForNamedTranches.exit ]
  %.011 = phi i64 [ %22, %.lr.ph ], [ %15, %NumLWLocksForNamedTranches.exit ]
  %18 = load ptr, ptr @NamedLWLockTrancheRequestArray, align 8
  %19 = getelementptr inbounds nuw %struct.NamedLWLockTrancheRequest, ptr %18, i64 %indvars.iv
  %20 = tail call i64 @strlen(ptr noundef nonnull dereferenceable(1) %19) #16
  %21 = add i64 %20, 1
  %22 = tail call i64 @add_size(i64 noundef %.011, i64 noundef %21) #15
  %indvars.iv.next = add nuw nsw i64 %indvars.iv, 1
  %23 = load i32, ptr @NamedLWLockTrancheRequests, align 4
  %24 = sext i32 %23 to i64
  %25 = icmp slt i64 %indvars.iv.next, %24
  br i1 %25, label %.lr.ph, label %._crit_edge, !llvm.loop !6

._crit_edge:                                      ; preds = %.lr.ph, %NumLWLocksForNamedTranches.exit
  %.0.lcssa = phi i64 [ %15, %NumLWLocksForNamedTranches.exit ], [ %22, %.lr.ph ]
  ret i64 %.0.lcssa
}